target datalayout = "e-m:e-p270:32:32-p271:32:32-p272:64:64-i64:64-i128:128-f80:128-n8:16:32:64-S128"
target triple = "x86_64-pc-linux-gnu"

%struct.Vec_Int_t_ = type { i32, i32, ptr }
%struct.DdNode = type { i32, i32, ptr, %union.anon.1, i64 }
%union.anon.1 = type { %struct.DdChildren }
%struct.DdChildren = type { ptr, ptr }
%struct.DdManager = type { %struct.DdNode, ptr, ptr, ptr, ptr, ptr, ptr, ptr, i32, i32, double, double, double, i32, i32, i32, i32, i32, i32, ptr, ptr, %struct.DdSubtable, i32, i32, i32, i32, i32, i32, i32, double, i32, i32, i32, ptr, i64, double, i32, ptr, ptr, ptr, ptr, ptr, ptr, ptr, i32, ptr, ptr, ptr, ptr, ptr, ptr, i32, i32, i32, double, i32, i32, i32, i32, double, double, i32, i32, i32, i32, i32, i32, i32, i32, i32, ptr, ptr, i32, i32, i32, i32, i32, i32, ptr, ptr, ptr, ptr, ptr, ptr, ptr, ptr, i32, i64, i64, i64, i32, i64, i64, double, double, double, double, double, double, i32, ptr, ptr, i64 }
%struct.DdSubtable = type { ptr, i32, i32, i32, i32, i32, i32, i32, i32, i32, i32, i32 }

@.str.2 = private unnamed_addr constant [2 x i8] c"\0A\00", align 1
@.str.3 = private unnamed_addr constant [18 x i8] c"Random order %d:\0A\00", align 1
@.str.4 = private unnamed_addr constant [16 x i8] c"Natural order:\0A\00", align 1
@.str.5 = private unnamed_addr constant [15 x i8] c" %d=%d(%d)[%d]\00", align 1

; Function Attrs: inlinehint nounwind uwtable
define internal ptr @Vec_IntAlloc(i32 noundef %0) #2 {
  %2 = alloca i32, align 4
  %3 = alloca ptr, align 8
  store i32 %0, ptr %2, align 4, !tbaa !8
  call void @llvm.lifetime.start.p0(i64 8, ptr %3) #12
  %4 = call noalias ptr @malloc(i64 noundef 16) #13
  store ptr %4, ptr %3, align 8, !tbaa !44
  %5 = load i32, ptr %2, align 4, !tbaa !8
  %6 = icmp sgt i32 %5, 0
  br i1 %6, label %7, label %11

7:                                                ; preds = %1
  %8 = load i32, ptr %2, align 4, !tbaa !8
  %9 = icmp slt i32 %8, 16
  br i1 %9, label %10, label %11

10:                                               ; preds = %7
  store i32 16, ptr %2, align 4, !tbaa !8
  br label %11

11:                                               ; preds = %10, %7, %1
  %12 = load ptr, ptr %3, align 8, !tbaa !44
  %13 = getelementptr inbounds nuw %struct.Vec_Int_t_, ptr %12, i32 0, i32 1
  store i32 0, ptr %13, align 4, !tbaa !48
  %14 = load i32, ptr %2, align 4, !tbaa !8
  %15 = load ptr, ptr %3, align 8, !tbaa !44
  %16 = getelementptr inbounds nuw %struct.Vec_Int_t_, ptr %15, i32 0, i32 0
  store i32 %14, ptr %16, align 8, !tbaa !109
  %17 = load ptr, ptr %3, align 8, !tbaa !44
  %18 = getelementptr inbounds nuw %struct.Vec_Int_t_, ptr %17, i32 0, i32 0
  %19 = load i32, ptr %18, align 8, !tbaa !109
  %20 = icmp ne i32 %19, 0
  br i1 %20, label %21, label %28

21:                                               ; preds = %11
  %22 = load ptr, ptr %3, align 8, !tbaa !44
  %23 = getelementptr inbounds nuw %struct.Vec_Int_t_, ptr %22, i32 0, i32 0
  %24 = load i32, ptr %23, align 8, !tbaa !109
  %25 = sext i32 %24 to i64
  %26 = mul i64 4, %25
  %27 = call noalias ptr @malloc(i64 noundef %26) #13
  br label %29

28:                                               ; preds = %11
  br label %29

29:                                               ; preds = %28, %21
  %30 = phi ptr [ %27, %21 ], [ null, %28 ]
  %31 = load ptr, ptr %3, align 8, !tbaa !44
  %32 = getelementptr inbounds nuw %struct.Vec_Int_t_, ptr %31, i32 0, i32 2
  store ptr %30, ptr %32, align 8, !tbaa !49
  %33 = load ptr, ptr %3, align 8, !tbaa !44
  call void @llvm.lifetime.end.p0(i64 8, ptr %3) #12
  ret ptr %33
}

; Function Attrs: inlinehint nounwind uwtable
define internal i32 @Abc_Base2Log(i32 noundef %0) #2 {
  %2 = alloca i32, align 4
  %3 = alloca i32, align 4
  %4 = alloca i32, align 4
  %5 = alloca i32, align 4
  store i32 %0, ptr %3, align 4, !tbaa !8
  call void @llvm.lifetime.start.p0(i64 4, ptr %4) #12
  %6 = load i32, ptr %3, align 4, !tbaa !8
  %7 = icmp ult i32 %6, 2
  br i1 %7, label %8, label %10

8:                                                ; preds = %1
  %9 = load i32, ptr %3, align 4, !tbaa !8
  store i32 %9, ptr %2, align 4
  store i32 1, ptr %5, align 4
  br label %24

10:                                               ; preds = %1
  store i32 0, ptr %4, align 4, !tbaa !8
  %11 = load i32, ptr %3, align 4, !tbaa !8
  %12 = add i32 %11, -1
  store i32 %12, ptr %3, align 4, !tbaa !8
  br label %13

13:                                               ; preds = %17, %10
  %14 = load i32, ptr %3, align 4, !tbaa !8
  %15 = icmp ne i32 %14, 0
  br i1 %15, label %16, label %22

16:                                               ; preds = %13
  br label %17

17:                                               ; preds = %16
  %18 = load i32, ptr %3, align 4, !tbaa !8
  %19 = lshr i32 %18, 1
  store i32 %19, ptr %3, align 4, !tbaa !8
  %20 = load i32, ptr %4, align 4, !tbaa !8
  %21 = add nsw i32 %20, 1
  store i32 %21, ptr %4, align 4, !tbaa !8
  br label %13, !llvm.loop !86

22:                                               ; preds = %13
  %23 = load i32, ptr %4, align 4, !tbaa !8
  store i32 %23, ptr %2, align 4
  store i32 1, ptr %5, align 4
  br label %24

24:                                               ; preds = %22, %8
  call void @llvm.lifetime.end.p0(i64 4, ptr %4) #12
  %25 = load i32, ptr %2, align 4
  ret i32 %25
}

; Function Attrs: inlinehint nounwind uwtable
define internal void @Vec_IntFree(ptr noundef %0) #2 {
  %2 = alloca ptr, align 8
  store ptr %0, ptr %2, align 8, !tbaa !44
  %3 = load ptr, ptr %2, align 8, !tbaa !44
  %4 = getelementptr inbounds nuw %struct.Vec_Int_t_, ptr %3, i32 0, i32 2
  %5 = load ptr, ptr %4, align 8, !tbaa !49
  %6 = icmp ne ptr %5, null
  br i1 %6, label %7, label %13

7:                                                ; preds = %1
  %8 = load ptr, ptr %2, align 8, !tbaa !44
  %9 = getelementptr inbounds nuw %struct.Vec_Int_t_, ptr %8, i32 0, i32 2
  %10 = load ptr, ptr %9, align 8, !tbaa !49
  call void @free(ptr noundef %10) #12
  %11 = load ptr, ptr %2, align 8, !tbaa !44
  %12 = getelementptr inbounds nuw %struct.Vec_Int_t_, ptr %11, i32 0, i32 2
  store ptr null, ptr %12, align 8, !tbaa !49
  br label %14

13:                                               ; preds = %1
  br label %14

14:                                               ; preds = %13, %7
  %15 = load ptr, ptr %2, align 8, !tbaa !44
  %16 = icmp ne ptr %15, null
  br i1 %16, label %17, label %19

17:                                               ; preds = %14
  %18 = load ptr, ptr %2, align 8, !tbaa !44
  call void @free(ptr noundef %18) #12
  store ptr null, ptr %2, align 8, !tbaa !44
  br label %20

19:                                               ; preds = %14
  br label %20

20:                                               ; preds = %19, %17
  ret void
}

; Function Attrs: inlinehint nounwind uwtable
define internal ptr @Vec_IntArray(ptr noundef %0) #2 {
  %2 = alloca ptr, align 8
  store ptr %0, ptr %2, align 8, !tbaa !44
  %3 = load ptr, ptr %2, align 8, !tbaa !44
  %4 = getelementptr inbounds nuw %struct.Vec_Int_t_, ptr %3, i32 0, i32 2
  %5 = load ptr, ptr %4, align 8, !tbaa !49
  ret ptr %5
}

; Function Attrs: inlinehint nounwind uwtable
define internal void @Vec_IntRandomizeOrder(ptr noundef %0) #2 {
  %2 = alloca ptr, align 8
  %3 = alloca i32, align 4
  %4 = alloca i32, align 4
  %5 = alloca i32, align 4
  store ptr %0, ptr %2, align 8, !tbaa !44
  call void @llvm.lifetime.start.p0(i64 4, ptr %3) #12
  store i32 0, ptr %3, align 4, !tbaa !8
  br label %6

6:                                                ; preds = %45, %1
  %7 = load i32, ptr %3, align 4, !tbaa !8
  %8 = load ptr, ptr %2, align 8, !tbaa !44
  %9 = getelementptr inbounds nuw %struct.Vec_Int_t_, ptr %8, i32 0, i32 1
  %10 = load i32, ptr %9, align 4, !tbaa !48
  %11 = icmp slt i32 %7, %10
  br i1 %11, label %12, label %48

12:                                               ; preds = %6
  call void @llvm.lifetime.start.p0(i64 4, ptr %4) #12
  %13 = call i32 @Abc_Random(i32 noundef 0)
  %14 = load ptr, ptr %2, align 8, !tbaa !44
  %15 = getelementptr inbounds nuw %struct.Vec_Int_t_, ptr %14, i32 0, i32 1
  %16 = load i32, ptr %15, align 4, !tbaa !48
  %17 = urem i32 %13, %16
  store i32 %17, ptr %4, align 4, !tbaa !8
  call void @llvm.lifetime.start.p0(i64 4, ptr %5) #12
  %18 = load ptr, ptr %2, align 8, !tbaa !44
  %19 = getelementptr inbounds nuw %struct.Vec_Int_t_, ptr %18, i32 0, i32 2
  %20 = load ptr, ptr %19, align 8, !tbaa !49
  %21 = load i32, ptr %4, align 4, !tbaa !8
  %22 = sext i32 %21 to i64
  %23 = getelementptr inbounds i32, ptr %20, i64 %22
  %24 = load i32, ptr %23, align 4, !tbaa !8
  store i32 %24, ptr %5, align 4, !tbaa !8
  %25 = load ptr, ptr %2, align 8, !tbaa !44
  %26 = getelementptr inbounds nuw %struct.Vec_Int_t_, ptr %25, i32 0, i32 2
  %27 = load ptr, ptr %26, align 8, !tbaa !49
  %28 = load i32, ptr %3, align 4, !tbaa !8
  %29 = sext i32 %28 to i64
  %30 = getelementptr inbounds i32, ptr %27, i64 %29
  %31 = load i32, ptr %30, align 4, !tbaa !8
  %32 = load ptr, ptr %2, align 8, !tbaa !44
  %33 = getelementptr inbounds nuw %struct.Vec_Int_t_, ptr %32, i32 0, i32 2
  %34 = load ptr, ptr %33, align 8, !tbaa !49
  %35 = load i32, ptr %4, align 4, !tbaa !8
  %36 = sext i32 %35 to i64
  %37 = getelementptr inbounds i32, ptr %34, i64 %36
  store i32 %31, ptr %37, align 4, !tbaa !8
  %38 = load i32, ptr %5, align 4, !tbaa !8
  %39 = load ptr, ptr %2, align 8, !tbaa !44
  %40 = getelementptr inbounds nuw %struct.Vec_Int_t_, ptr %39, i32 0, i32 2
  %41 = load ptr, ptr %40, align 8, !tbaa !49
  %42 = load i32, ptr %3, align 4, !tbaa !8
  %43 = sext i32 %42 to i64
  %44 = getelementptr inbounds i32, ptr %41, i64 %43
  store i32 %38, ptr %44, align 4, !tbaa !8
  call void @llvm.lifetime.end.p0(i64 4, ptr %5) #12
  call void @llvm.lifetime.end.p0(i64 4, ptr %4) #12
  br label %45

45:                                               ; preds = %12
  %46 = load i32, ptr %3, align 4, !tbaa !8
  %47 = add nsw i32 %46, 1
  store i32 %47, ptr %3, align 4, !tbaa !8
  br label %6, !llvm.loop !97

48:                                               ; preds = %6
  call void @llvm.lifetime.end.p0(i64 4, ptr %3) #12
  ret void
}

; Function Attrs: inlinehint nounwind uwtable
define internal ptr @Vec_IntStartNatural(i32 noundef %0) #2 {
  %2 = alloca i32, align 4
  %3 = alloca ptr, align 8
  %4 = alloca i32, align 4
  store i32 %0, ptr %2, align 4, !tbaa !8
  call void @llvm.lifetime.start.p0(i64 8, ptr %3) #12
  call void @llvm.lifetime.start.p0(i64 4, ptr %4) #12
  %5 = load i32, ptr %2, align 4, !tbaa !8
  %6 = call ptr @Vec_IntAlloc(i32 noundef %5)
  store ptr %6, ptr %3, align 8, !tbaa !44
  %7 = load i32, ptr %2, align 4, !tbaa !8
  %8 = load ptr, ptr %3, align 8, !tbaa !44
  %9 = getelementptr inbounds nuw %struct.Vec_Int_t_, ptr %8, i32 0, i32 1
  store i32 %7, ptr %9, align 4, !tbaa !48
  store i32 0, ptr %4, align 4, !tbaa !8
  br label %10

10:                                               ; preds = %22, %1
  %11 = load i32, ptr %4, align 4, !tbaa !8
  %12 = load i32, ptr %2, align 4, !tbaa !8
  %13 = icmp slt i32 %11, %12
  br i1 %13, label %14, label %25

14:                                               ; preds = %10
  %15 = load i32, ptr %4, align 4, !tbaa !8
  %16 = load ptr, ptr %3, align 8, !tbaa !44
  %17 = getelementptr inbounds nuw %struct.Vec_Int_t_, ptr %16, i32 0, i32 2
  %18 = load ptr, ptr %17, align 8, !tbaa !49
  %19 = load i32, ptr %4, align 4, !tbaa !8
  %20 = sext i32 %19 to i64
  %21 = getelementptr inbounds i32, ptr %18, i64 %20
  store i32 %15, ptr %21, align 4, !tbaa !8
  br label %22

22:                                               ; preds = %14
  %23 = load i32, ptr %4, align 4, !tbaa !8
  %24 = add nsw i32 %23, 1
  store i32 %24, ptr %4, align 4, !tbaa !8
  br label %10, !llvm.loop !96

25:                                               ; preds = %10
  %26 = load ptr, ptr %3, align 8, !tbaa !44
  call void @llvm.lifetime.end.p0(i64 4, ptr %4) #12
  call void @llvm.lifetime.end.p0(i64 8, ptr %3) #12
  ret ptr %26
}

; Function Attrs: nounwind uwtable
define void @Abc_NtkBddDecExploreOne(ptr noundef %0, ptr noundef %1, i32 noundef %2) #0 {
  %4 = alloca ptr, align 8
  %5 = alloca ptr, align 8
  %6 = alloca i32, align 4
  %7 = alloca ptr, align 8
  %8 = alloca i32, align 4
  %9 = alloca ptr, align 8
  %10 = alloca ptr, align 8
  %11 = alloca ptr, align 8
  %12 = alloca ptr, align 8
  store ptr %0, ptr %4, align 8, !tbaa !56
  store ptr %1, ptr %5, align 8, !tbaa !58
  store i32 %2, ptr %6, align 4, !tbaa !8
  call void @llvm.lifetime.start.p0(i64 8, ptr %7) #12
  %13 = load ptr, ptr %4, align 8, !tbaa !56
  %14 = getelementptr inbounds nuw %struct.DdManager, ptr %13, i32 0, i32 15
  %15 = load i32, ptr %14, align 8, !tbaa !92
  %16 = call ptr @Cudd_Init(i32 noundef %15, i32 noundef 0, i32 noundef 256, i32 noundef 262144, i64 noundef 0)
  store ptr %16, ptr %7, align 8, !tbaa !56
  call void @llvm.lifetime.start.p0(i64 4, ptr %8) #12
  call void @llvm.lifetime.start.p0(i64 8, ptr %9) #12
  %17 = load ptr, ptr %4, align 8, !tbaa !56
  %18 = getelementptr inbounds nuw %struct.DdManager, ptr %17, i32 0, i32 15
  %19 = load i32, ptr %18, align 8, !tbaa !92
  %20 = add nsw i32 %19, 100
  %21 = sext i32 %20 to i64
  %22 = call noalias ptr @calloc(i64 noundef %21, i64 noundef 4) #14
  store ptr %22, ptr %9, align 8, !tbaa !93
  %23 = load ptr, ptr %7, align 8, !tbaa !56
  call void @Cudd_AutodynEnable(ptr noundef %23, i32 noundef 6)
  call void @llvm.lifetime.start.p0(i64 8, ptr %10) #12
  %24 = load ptr, ptr %4, align 8, !tbaa !56
  %25 = getelementptr inbounds nuw %struct.DdManager, ptr %24, i32 0, i32 15
  %26 = load i32, ptr %25, align 8, !tbaa !92
  %27 = call ptr @Vec_IntStartNatural(i32 noundef %26)
  store ptr %27, ptr %10, align 8, !tbaa !44
  %28 = load i32, ptr %6, align 4, !tbaa !8
  %29 = icmp ne i32 %28, 0
  br i1 %29, label %30, label %32

30:                                               ; preds = %3
  %31 = load ptr, ptr %10, align 8, !tbaa !44
  call void @Vec_IntRandomizeOrder(ptr noundef %31)
  br label %32

32:                                               ; preds = %30, %3
  call void @llvm.lifetime.start.p0(i64 8, ptr %11) #12
  %33 = load ptr, ptr %4, align 8, !tbaa !56
  %34 = load ptr, ptr %7, align 8, !tbaa !56
  %35 = load ptr, ptr %5, align 8, !tbaa !58
  %36 = load ptr, ptr %10, align 8, !tbaa !44
  %37 = call ptr @Vec_IntArray(ptr noundef %36)
  %38 = call ptr @Extra_TransferPermute(ptr noundef %33, ptr noundef %34, ptr noundef %35, ptr noundef %37)
  store ptr %38, ptr %11, align 8, !tbaa !58
  %39 = load ptr, ptr %11, align 8, !tbaa !58
  call void @Cudd_Ref(ptr noundef %39)
  %40 = load i32, ptr %6, align 4, !tbaa !8
  %41 = icmp ne i32 %40, 0
  br i1 %41, label %42, label %45

42:                                               ; preds = %32
  %43 = load ptr, ptr %7, align 8, !tbaa !56
  %44 = call i32 @Cudd_ReduceHeap(ptr noundef %43, i32 noundef 6, i32 noundef 1)
  br label %45

45:                                               ; preds = %42, %32
  %46 = load ptr, ptr %10, align 8, !tbaa !44
  call void @Vec_IntFree(ptr noundef %46)
  call void @llvm.lifetime.start.p0(i64 8, ptr %12) #12
  %47 = load ptr, ptr %7, align 8, !tbaa !56
  %48 = load ptr, ptr %11, align 8, !tbaa !58
  %49 = call ptr @Cudd_BddToAdd(ptr noundef %47, ptr noundef %48)
  store ptr %49, ptr %12, align 8, !tbaa !58
  %50 = load ptr, ptr %12, align 8, !tbaa !58
  call void @Cudd_Ref(ptr noundef %50)
  %51 = load ptr, ptr %7, align 8, !tbaa !56
  %52 = load ptr, ptr %12, align 8, !tbaa !58
  %53 = load ptr, ptr %9, align 8, !tbaa !93
  %54 = call i32 @Extra_ProfileWidth(ptr noundef %51, ptr noundef %52, ptr noundef %53, i32 noundef -1)
  %55 = load i32, ptr %6, align 4, !tbaa !8
  %56 = icmp ne i32 %55, 0
  br i1 %56, label %57, label %60

57:                                               ; preds = %45
  %58 = load i32, ptr %6, align 4, !tbaa !8
  %59 = call i32 (ptr, ...) @printf(ptr noundef @.str.3, i32 noundef %58)
  br label %62

60:                                               ; preds = %45
  %61 = call i32 (ptr, ...) @printf(ptr noundef @.str.4)
  br label %62

62:                                               ; preds = %60, %57
  store i32 0, ptr %8, align 4, !tbaa !8
  br label %63

63:                                               ; preds = %92, %62
  %64 = load i32, ptr %8, align 4, !tbaa !8
  %65 = load ptr, ptr %4, align 8, !tbaa !56
  %66 = getelementptr inbounds nuw %struct.DdManager, ptr %65, i32 0, i32 15
  %67 = load i32, ptr %66, align 8, !tbaa !92
  %68 = icmp sle i32 %64, %67
  br i1 %68, label %69, label %95

69:                                               ; preds = %63
  %70 = load i32, ptr %8, align 4, !tbaa !8
  %71 = load ptr, ptr %9, align 8, !tbaa !93
  %72 = load i32, ptr %8, align 4, !tbaa !8
  %73 = sext i32 %72 to i64
  %74 = getelementptr inbounds i32, ptr %71, i64 %73
  %75 = load i32, ptr %74, align 4, !tbaa !8
  %76 = load i32, ptr %8, align 4, !tbaa !8
  %77 = load ptr, ptr %9, align 8, !tbaa !93
  %78 = load i32, ptr %8, align 4, !tbaa !8
  %79 = sext i32 %78 to i64
  %80 = getelementptr inbounds i32, ptr %77, i64 %79
  %81 = load i32, ptr %80, align 4, !tbaa !8
  %82 = call i32 @Abc_Base2Log(i32 noundef %81)
  %83 = sub nsw i32 %76, %82
  %84 = load ptr, ptr %7, align 8, !tbaa !56
  %85 = getelementptr inbounds nuw %struct.DdManager, ptr %84, i32 0, i32 37
  %86 = load ptr, ptr %85, align 8, !tbaa !94
  %87 = load i32, ptr %8, align 4, !tbaa !8
  %88 = sext i32 %87 to i64
  %89 = getelementptr inbounds i32, ptr %86, i64 %88
  %90 = load i32, ptr %89, align 4, !tbaa !8
  %91 = call i32 (ptr, ...) @printf(ptr noundef @.str.5, i32 noundef %70, i32 noundef %75, i32 noundef %83, i32 noundef %90)
  br label %92

92:                                               ; preds = %69
  %93 = load i32, ptr %8, align 4, !tbaa !8
  %94 = add nsw i32 %93, 1
  store i32 %94, ptr %8, align 4, !tbaa !8
  br label %63, !llvm.loop !95

95:                                               ; preds = %63
  %96 = call i32 (ptr, ...) @printf(ptr noundef @.str.2)
  %97 = load ptr, ptr %7, align 8, !tbaa !56
  %98 = load ptr, ptr %12, align 8, !tbaa !58
  call void @Cudd_RecursiveDeref(ptr noundef %97, ptr noundef %98)
  %99 = load ptr, ptr %7, align 8, !tbaa !56
  %100 = load ptr, ptr %11, align 8, !tbaa !58
  call void @Cudd_RecursiveDeref(ptr noundef %99, ptr noundef %100)
  %101 = load ptr, ptr %7, align 8, !tbaa !56
  call void @Cudd_Quit(ptr noundef %101)
  call void @llvm.lifetime.end.p0(i64 8, ptr %12) #12
  call void @llvm.lifetime.end.p0(i64 8, ptr %11) #12
  call void @llvm.lifetime.end.p0(i64 8, ptr %10) #12
  call void @llvm.lifetime.end.p0(i64 8, ptr %9) #12
  call void @llvm.lifetime.end.p0(i64 4, ptr %8) #12
  call void @llvm.lifetime.end.p0(i64 8, ptr %7) #12
  ret void
}