; Function Attrs: nounwind uwtable
define void @Abc_NtkBddDecExploreOne(ptr noundef %0, ptr noundef %1, i32 noundef %2) local_unnamed_addr #0 {
  %4 = getelementptr inbounds nuw i8, ptr %0, i64 136
  %5 = load i32, ptr %4, align 8, !tbaa !82
  %6 = tail call ptr @Cudd_Init(i32 noundef %5, i32 noundef 0, i32 noundef 256, i32 noundef 262144, i64 noundef 0) #20
  %7 = load i32, ptr %4, align 8, !tbaa !82
  %8 = add nsw i32 %7, 100
  %9 = sext i32 %8 to i64
  %10 = tail call noalias ptr @calloc(i64 noundef %9, i64 noundef 4) #21
  tail call void @Cudd_AutodynEnable(ptr noundef %6, i32 noundef 6) #20
  %11 = load i32, ptr %4, align 8, !tbaa !82
  %12 = add i32 %11, -1
  %or.cond.i.i = icmp ult i32 %12, 15
  %spec.store.select.i.i = select i1 %or.cond.i.i, i32 16, i32 %11
  %.not.i.i = icmp eq i32 %spec.store.select.i.i, 0
  br i1 %.not.i.i, label %Vec_IntAlloc.exit.i, label %13

13:                                               ; preds = %3
  %14 = sext i32 %spec.store.select.i.i to i64
  %15 = shl nsw i64 %14, 2
  %16 = tail call noalias ptr @malloc(i64 noundef %15) #19
  br label %Vec_IntAlloc.exit.i

Vec_IntAlloc.exit.i:                              ; preds = %13, %3
  %17 = phi ptr [ %16, %13 ], [ null, %3 ]
  %18 = icmp sgt i32 %11, 0
  br i1 %18, label %.lr.ph.preheader.i, label %Vec_IntStartNatural.exit.thread

.lr.ph.preheader.i:                               ; preds = %Vec_IntAlloc.exit.i
  %wide.trip.count.i = zext nneg i32 %11 to i64
  br label %.lr.ph.i

.lr.ph.i:                                         ; preds = %.lr.ph.i, %.lr.ph.preheader.i
  %indvars.iv.i = phi i64 [ 0, %.lr.ph.preheader.i ], [ %indvars.iv.next.i, %.lr.ph.i ]
  %19 = getelementptr inbounds nuw i32, ptr %17, i64 %indvars.iv.i
  %20 = trunc nuw nsw i64 %indvars.iv.i to i32
  store i32 %20, ptr %19, align 4, !tbaa !32
  %indvars.iv.next.i = add nuw nsw i64 %indvars.iv.i, 1
  %exitcond.not.i = icmp eq i64 %indvars.iv.next.i, %wide.trip.count.i
  br i1 %exitcond.not.i, label %Vec_IntStartNatural.exit, label %.lr.ph.i, !llvm.loop !83

Vec_IntStartNatural.exit:                         ; preds = %.lr.ph.i
  %.not = icmp eq i32 %2, 0
  br i1 %.not, label %Vec_IntRandomizeOrder.exit, label %.lr.ph.i39

Vec_IntStartNatural.exit.thread:                  ; preds = %Vec_IntAlloc.exit.i
  %.not42 = icmp eq i32 %2, 0
  br label %Vec_IntRandomizeOrder.exit

.lr.ph.i39:                                       ; preds = %Vec_IntStartNatural.exit, %.lr.ph.i39
  %indvars.iv.i40 = phi i64 [ %indvars.iv.next.i41, %.lr.ph.i39 ], [ 0, %Vec_IntStartNatural.exit ]
  %21 = tail call i32 @Abc_Random(i32 noundef 0) #20
  %22 = urem i32 %21, %11
  %23 = zext nneg i32 %22 to i64
  %24 = getelementptr inbounds nuw i32, ptr %17, i64 %23
  %25 = load i32, ptr %24, align 4, !tbaa !32
  %26 = getelementptr inbounds nuw i32, ptr %17, i64 %indvars.iv.i40
  %27 = load i32, ptr %26, align 4, !tbaa !32
  store i32 %27, ptr %24, align 4, !tbaa !32
  store i32 %25, ptr %26, align 4, !tbaa !32
  %indvars.iv.next.i41 = add nuw nsw i64 %indvars.iv.i40, 1
  %exitcond.not = icmp eq i64 %indvars.iv.next.i41, %wide.trip.count.i
  br i1 %exitcond.not, label %Vec_IntRandomizeOrder.exit, label %.lr.ph.i39, !llvm.loop !84

Vec_IntRandomizeOrder.exit:                       ; preds = %.lr.ph.i39, %Vec_IntStartNatural.exit, %Vec_IntStartNatural.exit.thread
  %.not44 = phi i1 [ true, %Vec_IntStartNatural.exit ], [ %.not42, %Vec_IntStartNatural.exit.thread ], [ false, %.lr.ph.i39 ]
  %28 = tail call ptr @Extra_TransferPermute(ptr noundef %0, ptr noundef %6, ptr noundef %1, ptr noundef %17) #20
  tail call void @Cudd_Ref(ptr noundef %28) #20
  br i1 %.not44, label %31, label %29

29:                                               ; preds = %Vec_IntRandomizeOrder.exit
  %30 = tail call i32 @Cudd_ReduceHeap(ptr noundef %6, i32 noundef 6, i32 noundef 1) #20
  br label %31

31:                                               ; preds = %29, %Vec_IntRandomizeOrder.exit
  %.not.i = icmp eq ptr %17, null
  br i1 %.not.i, label %Vec_IntFree.exit, label %32

32:                                               ; preds = %31
  tail call void @free(ptr noundef nonnull %17) #20
  br label %Vec_IntFree.exit

Vec_IntFree.exit:                                 ; preds = %31, %32
  %33 = tail call ptr @Cudd_BddToAdd(ptr noundef %6, ptr noundef %28) #20
  tail call void @Cudd_Ref(ptr noundef %33) #20
  %34 = tail call i32 @Extra_ProfileWidth(ptr noundef %6, ptr noundef %33, ptr noundef %10, i32 noundef -1) #20
  br i1 %.not44, label %37, label %35

35:                                               ; preds = %Vec_IntFree.exit
  %36 = tail call i32 (ptr, ...) @printf(ptr noundef nonnull dereferenceable(1) @.str.3, i32 noundef %2)
  br label %38

37:                                               ; preds = %Vec_IntFree.exit
  %puts = tail call i32 @puts(ptr nonnull dereferenceable(1) @str)
  br label %38

38:                                               ; preds = %37, %35
  %39 = load i32, ptr %4, align 8, !tbaa !82
  %.not3848 = icmp slt i32 %39, 0
  br i1 %.not3848, label %._crit_edge, label %.lr.ph

.lr.ph:                                           ; preds = %38
  %40 = getelementptr inbounds nuw i8, ptr %6, i64 312
  br label %41

41:                                               ; preds = %.lr.ph, %41
  %indvars.iv = phi i64 [ 0, %.lr.ph ], [ %indvars.iv.next, %41 ]
  %42 = getelementptr inbounds nuw i32, ptr %10, i64 %indvars.iv
  %43 = load i32, ptr %42, align 4, !tbaa !32
  %44 = icmp ult i32 %43, 2
  %45 = add i32 %43, -1
  %46 = tail call range(i32 0, 33) i32 @llvm.ctlz.i32(i32 %45, i1 true)
  %47 = sub nuw nsw i32 32, %46
  %.09.i = select i1 %44, i32 %43, i32 %47
  %48 = trunc nuw nsw i64 %indvars.iv to i32
  %49 = sub nsw i32 %48, %.09.i
  %50 = load ptr, ptr %40, align 8, !tbaa !85
  %51 = getelementptr inbounds nuw i32, ptr %50, i64 %indvars.iv
  %52 = load i32, ptr %51, align 4, !tbaa !32
  %53 = tail call i32 (ptr, ...) @printf(ptr noundef nonnull dereferenceable(1) @.str.5, i32 noundef %48, i32 noundef %43, i32 noundef %49, i32 noundef %52)
  %indvars.iv.next = add nuw nsw i64 %indvars.iv, 1
  %54 = load i32, ptr %4, align 8, !tbaa !82
  %55 = sext i32 %54 to i64
  %.not38.not = icmp slt i64 %indvars.iv, %55
  br i1 %.not38.not, label %41, label %._crit_edge, !llvm.loop !86

._crit_edge:                                      ; preds = %41, %38
  %putchar = tail call i32 @putchar(i32 10)
  tail call void @Cudd_RecursiveDeref(ptr noundef %6, ptr noundef %33) #20
  tail call void @Cudd_RecursiveDeref(ptr noundef %6, ptr noundef %28) #20
  tail call void @Cudd_Quit(ptr noundef %6) #20
  ret void
}